target datalayout = "e-m:e-p270:32:32-p271:32:32-p272:64:64-i64:64-i128:128-f80:128-n8:16:32:64-S128"
target triple = "x86_64-pc-linux-gnu"

%struct.rb_data_type_struct = type { ptr, %struct.anon, ptr, ptr, i64 }
%struct.anon = type { ptr, ptr, ptr, ptr, [1 x ptr] }

@rb_eRuntimeError = external global i64, align 8
@ossl_ts_req_type = internal constant %struct.rb_data_type_struct { ptr @.str.64, %struct.anon { ptr null, ptr @ossl_ts_req_free, ptr null, ptr null, [1 x ptr] zeroinitializer }, ptr null, ptr null, i64 33 }, align 8
@.str.57 = private unnamed_addr constant [27 x i8] c"TS_REQ wasn't initialized.\00", align 1

; Function Attrs: inlinehint nounwind sspstrong willreturn memory(none) uwtable
define internal zeroext i1 @RB_TEST(i64 noundef %0) #11 {
  %2 = alloca i64, align 8
  store i64 %0, ptr %2, align 8, !tbaa !6
  %3 = load i64, ptr %2, align 8, !tbaa !6
  %4 = and i64 %3, -5
  %5 = icmp ne i64 %4, 0
  ret i1 %5
}

; Function Attrs: nounwind sspstrong uwtable
define internal i64 @ossl_ts_req_set_cert_requested(i64 noundef %0, i64 noundef %1) #0 {
  %3 = alloca i64, align 8
  %4 = alloca i64, align 8
  %5 = alloca ptr, align 8
  store i64 %0, ptr %3, align 8, !tbaa !6
  store i64 %1, ptr %4, align 8, !tbaa !6
  call void @llvm.lifetime.start.p0(i64 8, ptr %5) #16
  br label %6

6:                                                ; preds = %2
  %7 = load i64, ptr %3, align 8, !tbaa !6
  %8 = call ptr @rb_check_typeddata(i64 noundef %7, ptr noundef @ossl_ts_req_type)
  store ptr %8, ptr %5, align 8, !tbaa !51
  %9 = load ptr, ptr %5, align 8, !tbaa !51
  %10 = icmp ne ptr %9, null
  br i1 %10, label %13, label %11

11:                                               ; preds = %6
  %12 = load i64, ptr @rb_eRuntimeError, align 8, !tbaa !6
  call void (i64, ptr, ...) @ossl_raise(i64 noundef %12, ptr noundef @.str.57) #17
  unreachable

13:                                               ; preds = %6
  br label %14

14:                                               ; preds = %13
  br label %15

15:                                               ; preds = %14
  %16 = load ptr, ptr %5, align 8, !tbaa !51
  %17 = load i64, ptr %4, align 8, !tbaa !6
  %18 = call zeroext i1 @RB_TEST(i64 noundef %17) #18
  %19 = zext i1 %18 to i32
  %20 = call i32 @TS_REQ_set_cert_req(ptr noundef %16, i32 noundef %19)
  %21 = load i64, ptr %4, align 8, !tbaa !6
  call void @llvm.lifetime.end.p0(i64 8, ptr %5) #16
  ret i64 %21
}