; Function Attrs: nounwind sspstrong uwtable
define internal noundef i64 @ossl_ts_req_set_cert_requested(i64 noundef %0, i64 noundef returned %1) #0 {
  %3 = tail call ptr @rb_check_typeddata(i64 noundef %0, ptr noundef nonnull @ossl_ts_req_type) #7
  %.not = icmp eq ptr %3, null
  br i1 %.not, label %4, label %6

4:                                                ; preds = %2
  %5 = load i64, ptr @rb_eRuntimeError, align 8, !tbaa !6
  tail call void (i64, ptr, ...) @ossl_raise(i64 noundef %5, ptr noundef nonnull @.str.57) #8
  unreachable

6:                                                ; preds = %2
  %7 = and i64 %1, -5
  %8 = icmp ne i64 %7, 0
  %9 = zext i1 %8 to i32
  %10 = tail call i32 @TS_REQ_set_cert_req(ptr noundef nonnull %3, i32 noundef %9) #7
  ret i64 %1
}